target datalayout = "e-m:e-p270:32:32-p271:32:32-p272:64:64-i64:64-i128:128-f80:128-n8:16:32:64-S128"
target triple = "x86_64-unknown-linux-gnu"

%class.symbol = type { ptr }
%struct.static_features = type { ptr, %class.arith_util, %class.bv_util, %class.array_util, %class.fpa_util, %class.seq_util, i32, i32, i32, i32, i32, %class.ast_mark, %class.ast_mark, i8, i32, i32, i32, i32, i32, i32, i32, i32, i32, i32, i32, i32, i32, i32, i32, i32, i32, i32, i32, i32, i32, i32, i32, i32, i32, i32, i32, i32, i8, i8, i8, i8, i8, i8, i8, i8, i8, i8, %class.rational, i32, i32, i32, i32, i32, i32, i32, i32, i32, %class.svector, %class.svector, %class.svector, %class.svector, %class.svector, i32, %class.svector, %class.svector, i32, [4 x i8], %class.u_map, %class.u_map, %class.u_map, i32, %class.svector.3, %class.symbol, %class.symbol, %class.symbol, %class.svector.5 }
%class.arith_util = type { ptr, ptr }
%class.bv_util = type { %class.bv_recognizers, ptr, ptr }
%class.bv_recognizers = type { i32 }
%class.array_util = type { %class.array_recognizers, ptr }
%class.array_recognizers = type { i32 }
%class.fpa_util = type { ptr, ptr, i32, %class.arith_util, %class.bv_util }
%class.seq_util = type { ptr, ptr, ptr, i32, [4 x i8], %"class.seq_util::str", %"class.seq_util::rex" }
%"class.seq_util::str" = type <{ ptr, ptr, i32, [4 x i8] }>
%"class.seq_util::rex" = type { ptr, ptr, i32, %class.vector, %class.ref_vector, %"struct.seq_util::rex::info", %"struct.seq_util::rex::info" }
%class.vector = type { ptr }
%class.ref_vector = type { %class.ref_vector_core }
%class.ref_vector_core = type { %class.ref_manager_wrapper, %class.ptr_vector }
%class.ref_manager_wrapper = type { ptr }
%class.ptr_vector = type { %class.vector.0 }
%class.vector.0 = type { ptr }
%"struct.seq_util::rex::info" = type { i32, i8, i32, i32 }
%class.ast_mark = type { ptr, %class.obj_mark, %class.obj_mark.1 }
%class.obj_mark = type { %struct.default_t2uint, %class.bit_vector }
%struct.default_t2uint = type { i8 }
%class.bit_vector = type { i32, i32, ptr }
%class.obj_mark.1 = type { %"struct.ast_mark::decl2uint", %class.bit_vector }
%"struct.ast_mark::decl2uint" = type { i8 }
%class.rational = type { %class.mpq }
%class.mpq = type { %class.mpz, %class.mpz }
%class.mpz = type { i32, i8, ptr }
%class.svector = type { %class.vector.2 }
%class.vector.2 = type { ptr }
%class.u_map = type { %class.map }
%class.map = type { %class.table2map }
%class.table2map = type { %class.core_hashtable }
%class.core_hashtable = type <{ ptr, i32, i32, i32, [4 x i8] }>
%class.svector.3 = type { %class.vector.4 }
%class.vector.4 = type { ptr }
%class.svector.5 = type { %class.vector.6 }
%class.vector.6 = type { ptr }

@_ZN8rational13g_mpq_managerE = external global ptr, align 8

; Function Attrs: mustprogress uwtable
define linkonce_odr hidden void @_ZN11mpz_managerILb1EE3delER3mpz(ptr noundef nonnull align 8 dereferenceable(600) %this, ptr noundef nonnull align 8 dereferenceable(16) %a) #4 comdat align 2 {
entry:
  %this.addr = alloca ptr, align 8
  %a.addr = alloca ptr, align 8
  store ptr %this, ptr %this.addr, align 8
  store ptr %a, ptr %a.addr, align 8
  %this1 = load ptr, ptr %this.addr, align 8
  %0 = load ptr, ptr %a.addr, align 8
  call void @_ZN11mpz_managerILb1EE3delEPS0_R3mpz(ptr noundef %this1, ptr noundef nonnull align 8 dereferenceable(16) %0)
  ret void
}

; Function Attrs: mustprogress uwtable
define linkonce_odr hidden void @_ZN11mpq_managerILb1EE3delER3mpz(ptr noundef nonnull align 8 dereferenceable(728) %this, ptr noundef nonnull align 8 dereferenceable(16) %a) #4 comdat align 2 {
entry:
  %this.addr = alloca ptr, align 8
  %a.addr = alloca ptr, align 8
  store ptr %this, ptr %this.addr, align 8
  store ptr %a, ptr %a.addr, align 8
  %this1 = load ptr, ptr %this.addr, align 8
  %0 = load ptr, ptr %a.addr, align 8
  call void @_ZN11mpz_managerILb1EE3delER3mpz(ptr noundef nonnull align 8 dereferenceable(600) %this1, ptr noundef nonnull align 8 dereferenceable(16) %0)
  ret void
}

; Function Attrs: mustprogress uwtable
define linkonce_odr hidden void @_ZN11mpq_managerILb1EE17reset_denominatorER3mpq(ptr noundef nonnull align 8 dereferenceable(728) %this, ptr noundef nonnull align 8 dereferenceable(32) %a) #4 comdat align 2 {
entry:
  %this.addr = alloca ptr, align 8
  %a.addr = alloca ptr, align 8
  store ptr %this, ptr %this.addr, align 8
  store ptr %a, ptr %a.addr, align 8
  %this1 = load ptr, ptr %this.addr, align 8
  %0 = load ptr, ptr %a.addr, align 8
  %m_den = getelementptr inbounds %class.mpq, ptr %0, i32 0, i32 1
  call void @_ZN11mpq_managerILb1EE3delER3mpz(ptr noundef nonnull align 8 dereferenceable(728) %this1, ptr noundef nonnull align 8 dereferenceable(16) %m_den)
  %1 = load ptr, ptr %a.addr, align 8
  %m_den2 = getelementptr inbounds %class.mpq, ptr %1, i32 0, i32 1
  %m_val = getelementptr inbounds %class.mpz, ptr %m_den2, i32 0, i32 0
  store i32 1, ptr %m_val, align 8
  ret void
}

; Function Attrs: mustprogress uwtable
define linkonce_odr hidden void @_ZN11mpq_managerILb1EE5resetER3mpz(ptr noundef nonnull align 8 dereferenceable(728) %this, ptr noundef nonnull align 8 dereferenceable(16) %a) #4 comdat align 2 {
entry:
  %this.addr = alloca ptr, align 8
  %a.addr = alloca ptr, align 8
  store ptr %this, ptr %this.addr, align 8
  store ptr %a, ptr %a.addr, align 8
  %this1 = load ptr, ptr %this.addr, align 8
  %0 = load ptr, ptr %a.addr, align 8
  call void @_ZN11mpz_managerILb1EE5resetER3mpz(ptr noundef nonnull align 8 dereferenceable(600) %this1, ptr noundef nonnull align 8 dereferenceable(16) %0)
  ret void
}

; Function Attrs: mustprogress uwtable
define linkonce_odr hidden void @_ZN11mpq_managerILb1EE5resetER3mpq(ptr noundef nonnull align 8 dereferenceable(728) %this, ptr noundef nonnull align 8 dereferenceable(32) %a) #4 comdat align 2 {
entry:
  %this.addr = alloca ptr, align 8
  %a.addr = alloca ptr, align 8
  store ptr %this, ptr %this.addr, align 8
  store ptr %a, ptr %a.addr, align 8
  %this1 = load ptr, ptr %this.addr, align 8
  %0 = load ptr, ptr %a.addr, align 8
  %m_num = getelementptr inbounds %class.mpq, ptr %0, i32 0, i32 0
  call void @_ZN11mpq_managerILb1EE5resetER3mpz(ptr noundef nonnull align 8 dereferenceable(728) %this1, ptr noundef nonnull align 8 dereferenceable(16) %m_num)
  %1 = load ptr, ptr %a.addr, align 8
  call void @_ZN11mpq_managerILb1EE17reset_denominatorER3mpq(ptr noundef nonnull align 8 dereferenceable(728) %this1, ptr noundef nonnull align 8 dereferenceable(32) %1)
  ret void
}

; Function Attrs: mustprogress nounwind uwtable
define linkonce_odr hidden noundef nonnull align 8 dereferenceable(728) ptr @_ZN8rational1mEv() #5 comdat align 2 {
entry:
  %0 = load ptr, ptr @_ZN8rational13g_mpq_managerE, align 8
  ret ptr %0
}

; Function Attrs: mustprogress nounwind uwtable
define linkonce_odr hidden void @_ZN6vectorIbLb0EjE5resetEv(ptr noundef nonnull align 8 dereferenceable(8) %this) #5 comdat align 2 {
entry:
  %this.addr = alloca ptr, align 8
  store ptr %this, ptr %this.addr, align 8
  %this1 = load ptr, ptr %this.addr, align 8
  %m_data = getelementptr inbounds %class.vector.4, ptr %this1, i32 0, i32 0
  %0 = load ptr, ptr %m_data, align 8
  %tobool = icmp ne ptr %0, null
  br i1 %tobool, label %if.then, label %if.end

if.then:                                          ; preds = %entry
  %m_data2 = getelementptr inbounds %class.vector.4, ptr %this1, i32 0, i32 0
  %1 = load ptr, ptr %m_data2, align 8
  %arrayidx = getelementptr inbounds i32, ptr %1, i64 -1
  store i32 0, ptr %arrayidx, align 4
  br label %if.end

if.end:                                           ; preds = %if.then, %entry
  ret void
}

; Function Attrs: mustprogress nounwind uwtable
define linkonce_odr hidden void @_ZN6vectorIjLb0EjE5resetEv(ptr noundef nonnull align 8 dereferenceable(8) %this) #5 comdat align 2 {
entry:
  %this.addr = alloca ptr, align 8
  store ptr %this, ptr %this.addr, align 8
  %this1 = load ptr, ptr %this.addr, align 8
  %m_data = getelementptr inbounds %class.vector.2, ptr %this1, i32 0, i32 0
  %0 = load ptr, ptr %m_data, align 8
  %tobool = icmp ne ptr %0, null
  br i1 %tobool, label %if.then, label %if.end

if.then:                                          ; preds = %entry
  %m_data2 = getelementptr inbounds %class.vector.2, ptr %this1, i32 0, i32 0
  %1 = load ptr, ptr %m_data2, align 8
  %arrayidx = getelementptr inbounds i32, ptr %1, i64 -1
  store i32 0, ptr %arrayidx, align 4
  br label %if.end

if.end:                                           ; preds = %if.then, %entry
  ret void
}

; Function Attrs: mustprogress uwtable
define linkonce_odr hidden void @_ZN8rational5resetEv(ptr noundef nonnull align 8 dereferenceable(32) %this) #4 comdat align 2 {
entry:
  %this.addr = alloca ptr, align 8
  store ptr %this, ptr %this.addr, align 8
  %this1 = load ptr, ptr %this.addr, align 8
  %call = call noundef nonnull align 8 dereferenceable(728) ptr @_ZN8rational1mEv()
  %m_val = getelementptr inbounds %class.rational, ptr %this1, i32 0, i32 0
  call void @_ZN11mpq_managerILb1EE5resetER3mpq(ptr noundef nonnull align 8 dereferenceable(728) %call, ptr noundef nonnull align 8 dereferenceable(32) %m_val)
  ret void
}

; Function Attrs: mustprogress uwtable
define hidden void @_ZN15static_features5resetEv(ptr noundef nonnull align 8 dereferenceable(792) %this) #4 align 2 {
entry:
  %this.addr = alloca ptr, align 8
  store ptr %this, ptr %this.addr, align 8
  %this1 = load ptr, ptr %this.addr, align 8
  %m_pre_processed = getelementptr inbounds %struct.static_features, ptr %this1, i32 0, i32 11
  call void @_ZN8ast_mark5resetEv(ptr noundef nonnull align 8 dereferenceable(56) %m_pre_processed)
  %m_post_processed = getelementptr inbounds %struct.static_features, ptr %this1, i32 0, i32 12
  call void @_ZN8ast_mark5resetEv(ptr noundef nonnull align 8 dereferenceable(56) %m_post_processed)
  %m_cnf = getelementptr inbounds %struct.static_features, ptr %this1, i32 0, i32 13
  store i8 1, ptr %m_cnf, align 8
  %m_num_exprs = getelementptr inbounds %struct.static_features, ptr %this1, i32 0, i32 14
  store i32 0, ptr %m_num_exprs, align 4
  %m_num_roots = getelementptr inbounds %struct.static_features, ptr %this1, i32 0, i32 15
  store i32 0, ptr %m_num_roots, align 8
  %m_max_depth = getelementptr inbounds %struct.static_features, ptr %this1, i32 0, i32 16
  store i32 0, ptr %m_max_depth, align 4
  %m_num_quantifiers = getelementptr inbounds %struct.static_features, ptr %this1, i32 0, i32 17
  store i32 0, ptr %m_num_quantifiers, align 8
  %m_num_quantifiers_with_patterns = getelementptr inbounds %struct.static_features, ptr %this1, i32 0, i32 18
  store i32 0, ptr %m_num_quantifiers_with_patterns, align 4
  %m_num_quantifiers_with_multi_patterns = getelementptr inbounds %struct.static_features, ptr %this1, i32 0, i32 19
  store i32 0, ptr %m_num_quantifiers_with_multi_patterns, align 8
  %m_num_clauses = getelementptr inbounds %struct.static_features, ptr %this1, i32 0, i32 20
  store i32 0, ptr %m_num_clauses, align 4
  %m_num_bin_clauses = getelementptr inbounds %struct.static_features, ptr %this1, i32 0, i32 21
  store i32 0, ptr %m_num_bin_clauses, align 8
  %m_num_units = getelementptr inbounds %struct.static_features, ptr %this1, i32 0, i32 22
  store i32 0, ptr %m_num_units, align 4
  %m_sum_clause_size = getelementptr inbounds %struct.static_features, ptr %this1, i32 0, i32 23
  store i32 0, ptr %m_sum_clause_size, align 8
  %m_num_nested_formulas = getelementptr inbounds %struct.static_features, ptr %this1, i32 0, i32 24
  store i32 0, ptr %m_num_nested_formulas, align 4
  %m_num_bool_exprs = getelementptr inbounds %struct.static_features, ptr %this1, i32 0, i32 25
  store i32 0, ptr %m_num_bool_exprs, align 8
  %m_num_bool_constants = getelementptr inbounds %struct.static_features, ptr %this1, i32 0, i32 26
  store i32 0, ptr %m_num_bool_constants, align 4
  %m_num_ite_trees = getelementptr inbounds %struct.static_features, ptr %this1, i32 0, i32 27
  store i32 0, ptr %m_num_ite_trees, align 8
  %m_max_ite_tree_depth = getelementptr inbounds %struct.static_features, ptr %this1, i32 0, i32 28
  store i32 0, ptr %m_max_ite_tree_depth, align 4
  %m_sum_ite_tree_depth = getelementptr inbounds %struct.static_features, ptr %this1, i32 0, i32 29
  store i32 0, ptr %m_sum_ite_tree_depth, align 8
  %m_num_ors = getelementptr inbounds %struct.static_features, ptr %this1, i32 0, i32 31
  store i32 0, ptr %m_num_ors, align 8
  %m_num_ands = getelementptr inbounds %struct.static_features, ptr %this1, i32 0, i32 30
  store i32 0, ptr %m_num_ands, align 4
  %m_num_iffs = getelementptr inbounds %struct.static_features, ptr %this1, i32 0, i32 32
  store i32 0, ptr %m_num_iffs, align 4
  %m_num_ite_formulas = getelementptr inbounds %struct.static_features, ptr %this1, i32 0, i32 33
  store i32 0, ptr %m_num_ite_formulas, align 8
  %m_num_ite_terms = getelementptr inbounds %struct.static_features, ptr %this1, i32 0, i32 34
  store i32 0, ptr %m_num_ite_terms, align 4
  %m_num_sharing = getelementptr inbounds %struct.static_features, ptr %this1, i32 0, i32 35
  store i32 0, ptr %m_num_sharing, align 8
  %m_num_interpreted_exprs = getelementptr inbounds %struct.static_features, ptr %this1, i32 0, i32 36
  store i32 0, ptr %m_num_interpreted_exprs, align 4
  %m_num_uninterpreted_exprs = getelementptr inbounds %struct.static_features, ptr %this1, i32 0, i32 37
  store i32 0, ptr %m_num_uninterpreted_exprs, align 8
  %m_num_interpreted_constants = getelementptr inbounds %struct.static_features, ptr %this1, i32 0, i32 38
  store i32 0, ptr %m_num_interpreted_constants, align 4
  %m_num_uninterpreted_constants = getelementptr inbounds %struct.static_features, ptr %this1, i32 0, i32 39
  store i32 0, ptr %m_num_uninterpreted_constants, align 8
  %m_num_uninterpreted_functions = getelementptr inbounds %struct.static_features, ptr %this1, i32 0, i32 40
  store i32 0, ptr %m_num_uninterpreted_functions, align 4
  %m_num_eqs = getelementptr inbounds %struct.static_features, ptr %this1, i32 0, i32 41
  store i32 0, ptr %m_num_eqs, align 8
  %m_has_rational = getelementptr inbounds %struct.static_features, ptr %this1, i32 0, i32 42
  store i8 0, ptr %m_has_rational, align 4
  %m_has_int = getelementptr inbounds %struct.static_features, ptr %this1, i32 0, i32 43
  store i8 0, ptr %m_has_int, align 1
  %m_has_real = getelementptr inbounds %struct.static_features, ptr %this1, i32 0, i32 44
  store i8 0, ptr %m_has_real, align 2
  %m_has_bv = getelementptr inbounds %struct.static_features, ptr %this1, i32 0, i32 45
  store i8 0, ptr %m_has_bv, align 1
  %m_has_fpa = getelementptr inbounds %struct.static_features, ptr %this1, i32 0, i32 46
  store i8 0, ptr %m_has_fpa, align 8
  %m_has_sr = getelementptr inbounds %struct.static_features, ptr %this1, i32 0, i32 47
  store i8 0, ptr %m_has_sr, align 1
  %m_has_str = getelementptr inbounds %struct.static_features, ptr %this1, i32 0, i32 48
  store i8 0, ptr %m_has_str, align 2
  %m_has_seq_non_str = getelementptr inbounds %struct.static_features, ptr %this1, i32 0, i32 49
  store i8 0, ptr %m_has_seq_non_str, align 1
  %m_has_arrays = getelementptr inbounds %struct.static_features, ptr %this1, i32 0, i32 50
  store i8 0, ptr %m_has_arrays, align 4
  %m_has_ext_arrays = getelementptr inbounds %struct.static_features, ptr %this1, i32 0, i32 51
  store i8 0, ptr %m_has_ext_arrays, align 1
  %m_arith_k_sum = getelementptr inbounds %struct.static_features, ptr %this1, i32 0, i32 52
  call void @_ZN8rational5resetEv(ptr noundef nonnull align 8 dereferenceable(32) %m_arith_k_sum)
  %m_num_arith_terms = getelementptr inbounds %struct.static_features, ptr %this1, i32 0, i32 53
  store i32 0, ptr %m_num_arith_terms, align 8
  %m_num_arith_eqs = getelementptr inbounds %struct.static_features, ptr %this1, i32 0, i32 54
  store i32 0, ptr %m_num_arith_eqs, align 4
  %m_num_arith_ineqs = getelementptr inbounds %struct.static_features, ptr %this1, i32 0, i32 55
  store i32 0, ptr %m_num_arith_ineqs, align 8
  %m_num_diff_terms = getelementptr inbounds %struct.static_features, ptr %this1, i32 0, i32 56
  store i32 0, ptr %m_num_diff_terms, align 4
  %m_num_diff_eqs = getelementptr inbounds %struct.static_features, ptr %this1, i32 0, i32 57
  store i32 0, ptr %m_num_diff_eqs, align 8
  %m_num_diff_ineqs = getelementptr inbounds %struct.static_features, ptr %this1, i32 0, i32 58
  store i32 0, ptr %m_num_diff_ineqs, align 4
  %m_num_simple_eqs = getelementptr inbounds %struct.static_features, ptr %this1, i32 0, i32 59
  store i32 0, ptr %m_num_simple_eqs, align 8
  %m_num_simple_ineqs = getelementptr inbounds %struct.static_features, ptr %this1, i32 0, i32 60
  store i32 0, ptr %m_num_simple_ineqs, align 4
  %m_num_non_linear = getelementptr inbounds %struct.static_features, ptr %this1, i32 0, i32 61
  store i32 0, ptr %m_num_non_linear, align 8
  %m_num_apps = getelementptr inbounds %struct.static_features, ptr %this1, i32 0, i32 62
  call void @_ZN6vectorIjLb0EjE5resetEv(ptr noundef nonnull align 8 dereferenceable(8) %m_num_apps)
  %m_num_theory_terms = getelementptr inbounds %struct.static_features, ptr %this1, i32 0, i32 63
  call void @_ZN6vectorIjLb0EjE5resetEv(ptr noundef nonnull align 8 dereferenceable(8) %m_num_theory_terms)
  %m_num_theory_atoms = getelementptr inbounds %struct.static_features, ptr %this1, i32 0, i32 64
  call void @_ZN6vectorIjLb0EjE5resetEv(ptr noundef nonnull align 8 dereferenceable(8) %m_num_theory_atoms)
  %m_num_theory_constants = getelementptr inbounds %struct.static_features, ptr %this1, i32 0, i32 65
  call void @_ZN6vectorIjLb0EjE5resetEv(ptr noundef nonnull align 8 dereferenceable(8) %m_num_theory_constants)
  %m_num_theory_eqs = getelementptr inbounds %struct.static_features, ptr %this1, i32 0, i32 66
  call void @_ZN6vectorIjLb0EjE5resetEv(ptr noundef nonnull align 8 dereferenceable(8) %m_num_theory_eqs)
  %m_num_aliens = getelementptr inbounds %struct.static_features, ptr %this1, i32 0, i32 67
  store i32 0, ptr %m_num_aliens, align 8
  %m_num_aliens_per_family = getelementptr inbounds %struct.static_features, ptr %this1, i32 0, i32 68
  call void @_ZN6vectorIjLb0EjE5resetEv(ptr noundef nonnull align 8 dereferenceable(8) %m_num_aliens_per_family)
  %m_num_theories = getelementptr inbounds %struct.static_features, ptr %this1, i32 0, i32 75
  store i32 0, ptr %m_num_theories, align 8
  %m_theories = getelementptr inbounds %struct.static_features, ptr %this1, i32 0, i32 76
  call void @_ZN6vectorIbLb0EjE5resetEv(ptr noundef nonnull align 8 dereferenceable(8) %m_theories)
  %m_max_stack_depth = getelementptr inbounds %struct.static_features, ptr %this1, i32 0, i32 70
  store i32 30, ptr %m_max_stack_depth, align 8
  call void @_ZN15static_features11flush_cacheEv(ptr noundef nonnull align 8 dereferenceable(792) %this1)
  ret void
}