; Function Attrs: mustprogress uwtable
define hidden void @_ZN15static_features5resetEv(ptr noundef nonnull align 8 dereferenceable(792) %this) local_unnamed_addr #3 align 2 {
entry:
  %m_pre_processed = getelementptr inbounds i8, ptr %this, i64 288
  tail call void @_ZN8ast_mark5resetEv(ptr noundef nonnull align 8 dereferenceable(56) %m_pre_processed)
  %m_post_processed = getelementptr inbounds i8, ptr %this, i64 344
  tail call void @_ZN8ast_mark5resetEv(ptr noundef nonnull align 8 dereferenceable(56) %m_post_processed)
  %m_cnf = getelementptr inbounds i8, ptr %this, i64 400
  store i8 1, ptr %m_cnf, align 8
  %m_num_exprs = getelementptr inbounds i8, ptr %this, i64 404
  %m_arith_k_sum = getelementptr inbounds i8, ptr %this, i64 528
  tail call void @llvm.memset.p0.i64(ptr noundef nonnull align 4 dereferenceable(122) %m_num_exprs, i8 0, i64 122, i1 false)
  %0 = load ptr, ptr @_ZN8rational13g_mpq_managerE, align 8
  tail call void @_ZN11mpz_managerILb1EE5resetER3mpz(ptr noundef nonnull align 8 dereferenceable(600) %0, ptr noundef nonnull align 8 dereferenceable(16) %m_arith_k_sum)
  %m_den.i.i.i = getelementptr inbounds i8, ptr %this, i64 544
  tail call void @_ZN11mpz_managerILb1EE3delEPS0_R3mpz(ptr noundef nonnull %0, ptr noundef nonnull align 8 dereferenceable(16) %m_den.i.i.i)
  store i32 1, ptr %m_den.i.i.i, align 8
  %m_num_arith_terms = getelementptr inbounds i8, ptr %this, i64 560
  %m_num_apps = getelementptr inbounds i8, ptr %this, i64 600
  tail call void @llvm.memset.p0.i64(ptr noundef nonnull align 8 dereferenceable(36) %m_num_arith_terms, i8 0, i64 36, i1 false)
  %1 = load ptr, ptr %m_num_apps, align 8
  %tobool.not.i = icmp eq ptr %1, null
  br i1 %tobool.not.i, label %_ZN6vectorIjLb0EjE5resetEv.exit, label %if.then.i

if.then.i:                                        ; preds = %entry
  %arrayidx.i = getelementptr inbounds i8, ptr %1, i64 -4
  store i32 0, ptr %arrayidx.i, align 4
  br label %_ZN6vectorIjLb0EjE5resetEv.exit

_ZN6vectorIjLb0EjE5resetEv.exit:                  ; preds = %entry, %if.then.i
  %m_num_theory_terms = getelementptr inbounds i8, ptr %this, i64 608
  %2 = load ptr, ptr %m_num_theory_terms, align 8
  %tobool.not.i1 = icmp eq ptr %2, null
  br i1 %tobool.not.i1, label %_ZN6vectorIjLb0EjE5resetEv.exit4, label %if.then.i2

if.then.i2:                                       ; preds = %_ZN6vectorIjLb0EjE5resetEv.exit
  %arrayidx.i3 = getelementptr inbounds i8, ptr %2, i64 -4
  store i32 0, ptr %arrayidx.i3, align 4
  br label %_ZN6vectorIjLb0EjE5resetEv.exit4

_ZN6vectorIjLb0EjE5resetEv.exit4:                 ; preds = %_ZN6vectorIjLb0EjE5resetEv.exit, %if.then.i2
  %m_num_theory_atoms = getelementptr inbounds i8, ptr %this, i64 616
  %3 = load ptr, ptr %m_num_theory_atoms, align 8
  %tobool.not.i5 = icmp eq ptr %3, null
  br i1 %tobool.not.i5, label %_ZN6vectorIjLb0EjE5resetEv.exit8, label %if.then.i6

if.then.i6:                                       ; preds = %_ZN6vectorIjLb0EjE5resetEv.exit4
  %arrayidx.i7 = getelementptr inbounds i8, ptr %3, i64 -4
  store i32 0, ptr %arrayidx.i7, align 4
  br label %_ZN6vectorIjLb0EjE5resetEv.exit8

_ZN6vectorIjLb0EjE5resetEv.exit8:                 ; preds = %_ZN6vectorIjLb0EjE5resetEv.exit4, %if.then.i6
  %m_num_theory_constants = getelementptr inbounds i8, ptr %this, i64 624
  %4 = load ptr, ptr %m_num_theory_constants, align 8
  %tobool.not.i9 = icmp eq ptr %4, null
  br i1 %tobool.not.i9, label %_ZN6vectorIjLb0EjE5resetEv.exit12, label %if.then.i10

if.then.i10:                                      ; preds = %_ZN6vectorIjLb0EjE5resetEv.exit8
  %arrayidx.i11 = getelementptr inbounds i8, ptr %4, i64 -4
  store i32 0, ptr %arrayidx.i11, align 4
  br label %_ZN6vectorIjLb0EjE5resetEv.exit12

_ZN6vectorIjLb0EjE5resetEv.exit12:                ; preds = %_ZN6vectorIjLb0EjE5resetEv.exit8, %if.then.i10
  %m_num_theory_eqs = getelementptr inbounds i8, ptr %this, i64 632
  %5 = load ptr, ptr %m_num_theory_eqs, align 8
  %tobool.not.i13 = icmp eq ptr %5, null
  br i1 %tobool.not.i13, label %_ZN6vectorIjLb0EjE5resetEv.exit16, label %if.then.i14

if.then.i14:                                      ; preds = %_ZN6vectorIjLb0EjE5resetEv.exit12
  %arrayidx.i15 = getelementptr inbounds i8, ptr %5, i64 -4
  store i32 0, ptr %arrayidx.i15, align 4
  br label %_ZN6vectorIjLb0EjE5resetEv.exit16

_ZN6vectorIjLb0EjE5resetEv.exit16:                ; preds = %_ZN6vectorIjLb0EjE5resetEv.exit12, %if.then.i14
  %m_num_aliens = getelementptr inbounds i8, ptr %this, i64 640
  store i32 0, ptr %m_num_aliens, align 8
  %m_num_aliens_per_family = getelementptr inbounds i8, ptr %this, i64 648
  %6 = load ptr, ptr %m_num_aliens_per_family, align 8
  %tobool.not.i17 = icmp eq ptr %6, null
  br i1 %tobool.not.i17, label %_ZN6vectorIjLb0EjE5resetEv.exit20, label %if.then.i18

if.then.i18:                                      ; preds = %_ZN6vectorIjLb0EjE5resetEv.exit16
  %arrayidx.i19 = getelementptr inbounds i8, ptr %6, i64 -4
  store i32 0, ptr %arrayidx.i19, align 4
  br label %_ZN6vectorIjLb0EjE5resetEv.exit20

_ZN6vectorIjLb0EjE5resetEv.exit20:                ; preds = %_ZN6vectorIjLb0EjE5resetEv.exit16, %if.then.i18
  %m_num_theories = getelementptr inbounds i8, ptr %this, i64 744
  store i32 0, ptr %m_num_theories, align 8
  %m_theories = getelementptr inbounds i8, ptr %this, i64 752
  %7 = load ptr, ptr %m_theories, align 8
  %tobool.not.i21 = icmp eq ptr %7, null
  br i1 %tobool.not.i21, label %_ZN6vectorIbLb0EjE5resetEv.exit, label %if.then.i22

if.then.i22:                                      ; preds = %_ZN6vectorIjLb0EjE5resetEv.exit20
  %arrayidx.i23 = getelementptr inbounds i8, ptr %7, i64 -4
  store i32 0, ptr %arrayidx.i23, align 4
  br label %_ZN6vectorIbLb0EjE5resetEv.exit

_ZN6vectorIbLb0EjE5resetEv.exit:                  ; preds = %_ZN6vectorIjLb0EjE5resetEv.exit20, %if.then.i22
  %m_max_stack_depth = getelementptr inbounds i8, ptr %this, i64 664
  store i32 30, ptr %m_max_stack_depth, align 8
  tail call void @_ZN15static_features11flush_cacheEv(ptr noundef nonnull align 8 dereferenceable(792) %this)
  ret void
}